; Function Attrs: mustprogress uwtable
define hidden void @_ZN2cv24image_derivatives_scharrERKNS_3MatERS0_ii(ptr noundef nonnull align 8 dereferenceable(96) %0, ptr noundef nonnull align 8 dereferenceable(96) %1, i32 noundef %2, i32 noundef %3) local_unnamed_addr #3 personality ptr @__gxx_personality_v0 {
  %5 = alloca %"class.cv::_InputArray", align 8
  %6 = alloca %"class.cv::_OutputArray", align 8
  call void @llvm.lifetime.start.p0(i64 24, ptr nonnull %5) #19
  %7 = getelementptr inbounds nuw i8, ptr %5, i64 16
  store i32 0, ptr %7, align 8, !tbaa !3
  %8 = getelementptr inbounds nuw i8, ptr %5, i64 20
  store i32 0, ptr %8, align 4, !tbaa !8
  store i32 16842752, ptr %5, align 8, !tbaa !9
  %9 = getelementptr inbounds nuw i8, ptr %5, i64 8
  store ptr %0, ptr %9, align 8, !tbaa !12
  call void @llvm.lifetime.start.p0(i64 24, ptr nonnull %6) #19
  %10 = getelementptr inbounds nuw i8, ptr %6, i64 8
  %11 = getelementptr inbounds nuw i8, ptr %6, i64 16
  store i64 0, ptr %11, align 8
  store i32 33619968, ptr %6, align 8, !tbaa !9
  store ptr %1, ptr %10, align 8, !tbaa !12
  call void @_ZN2cv6ScharrERKNS_11_InputArrayERKNS_12_OutputArrayEiiiddi(ptr noundef nonnull align 8 dereferenceable(24) %5, ptr noundef nonnull align 8 dereferenceable(24) %6, i32 noundef 5, i32 noundef %2, i32 noundef %3, double noundef 1.000000e+00, double noundef 0.000000e+00, i32 noundef 4)
  call void @llvm.lifetime.end.p0(i64 24, ptr nonnull %6) #19
  call void @llvm.lifetime.end.p0(i64 24, ptr nonnull %5) #19
  ret void
}